; Function Attrs: mustprogress uwtable
define hidden void @_ZN5boost3log11v2_mt_posix5sinks9anonymous14file_collector6updateEmmm(ptr noundef nonnull align 8 dereferenceable(216) %0, i64 noundef %1, i64 noundef %2, i64 noundef %3) local_unnamed_addr #4 align 2 personality ptr @__gxx_personality_v0 {
  %5 = getelementptr inbounds nuw i8, ptr %0, i64 56
  %6 = tail call noundef i32 @pthread_mutex_lock(ptr noundef nonnull align 8 dereferenceable(40) %5) #29
  %.not.i.i = icmp eq i32 %6, 0
  br i1 %.not.i.i, label %_ZNSt10lock_guardISt5mutexEC2ERS0_.exit, label %7

7:                                                ; preds = %4
  tail call void @_ZSt20__throw_system_errori(i32 noundef %6) #30
  unreachable

_ZNSt10lock_guardISt5mutexEC2ERS0_.exit:          ; preds = %4
  %8 = getelementptr inbounds nuw i8, ptr %0, i64 96
  %9 = load i64, ptr %8, align 8, !tbaa !11
  %.sroa.speculated9 = tail call i64 @llvm.umin.i64(i64 %1, i64 %9)
  store i64 %.sroa.speculated9, ptr %8, align 8, !tbaa !74
  %10 = getelementptr inbounds nuw i8, ptr %0, i64 104
  %11 = load i64, ptr %10, align 8, !tbaa !11
  %.sroa.speculated5 = tail call i64 @llvm.umax.i64(i64 %11, i64 %2)
  store i64 %.sroa.speculated5, ptr %10, align 8, !tbaa !92
  %12 = getelementptr inbounds nuw i8, ptr %0, i64 112
  %13 = load i64, ptr %12, align 8, !tbaa !11
  %.sroa.speculated = tail call i64 @llvm.umin.i64(i64 %3, i64 %13)
  store i64 %.sroa.speculated, ptr %12, align 8, !tbaa !93
  %14 = tail call noundef i32 @pthread_mutex_unlock(ptr noundef nonnull align 8 dereferenceable(40) %5) #29
  ret void
}